(lp0
((F-0.5761335579366241
F-0.5061555092694204
F0.04976397640284417
tp1
(F-0.532364671603818
F0.6125628419477283
F-0.4121785649433751
F-0.41408145538565483
tp2
tp3
a((F-0.5965205665600815
F-0.5001076664101
F0.04956065467000903
tp4
(F0.29862095421986673
F-0.7192033830702765
F-0.14910390080176722
F0.6093767687127417
tp5
tp6
a((F-0.5796524679282298
F-0.5118430893791683
F0.03949977577215225
tp7
(F0.49189565317407946
F-0.5557243205153317
F0.43891341830361585
F0.5065216256086754
tp8
tp9
a((F-0.5844684939173009
F-0.504556823692846
F0.047391184181872034
tp10
(F-0.5525195166128739
F0.6297255079679136
F-0.39169719485468135
F-0.3804487822551202
tp11
tp12
a((F-0.594801501757276
F-0.5015046116472471
F0.037188974868221814
tp13
(F-0.13544529476166933
F0.8640043602705617
F0.06676121718761949
F-0.48030612888033186
tp14
tp15
a((F-0.578514354215838
F-0.5058654912057746
F0.052245499920448454
tp16
(F-0.5940909717203408
F0.6383594415504341
F-0.3249822810158652
F-0.36597767381293167
tp17
tp18
a((F-0.6070902047831092
F-0.4994507016695781
F0.03993469378427513
tp19
(F0.1503104379481053
F-0.6896595588801309
F-0.045847950032419295
F0.7068765313454233
tp20
tp21
a((F-0.5923841798652774
F-0.5154184591898926
F0.05319231035582822
tp22
(F0.10764528575463794
F-0.7641949595399302
F-0.0550975431848736
F0.6335478016721061
tp23
tp24
a((F-0.5966416195616591
F-0.49315625537407004
F0.05507758056209061
tp25
(F0.10923475161071414
F-0.670906134885911
F0.12528332134056117
F0.7226733816924984
tp26
tp27
a((F-0.5797259161124539
F-0.5124488745420607
F0.0439127731006676
tp28
(F0.6903582876027845
F-0.665380241354817
F0.13404550813464755
F0.25041240165311507
tp29
tp30
a.