ccopy_reg
_reconstructor
p0
(cgraspit_interface.msg._PlanGraspsResult
PlanGraspsResult
p1
c__builtin__
object
p2
Ntp3
Rp4
(lp5
(lp6
g0
(cgraspit_interface.msg._Grasp
Grasp
p7
g2
Ntp8
Rp9
(lp10
I0
ag0
(cgeometry_msgs.msg._Pose
Pose
p11
g2
Ntp12
Rp13
(lp14
g0
(cgeometry_msgs.msg._Point
Point
p15
g2
Ntp16
Rp17
(lp18
F-0.0014883515439456296
aF0.16048479419765654
aF0.011945637856798384
abag0
(cgeometry_msgs.msg._Quaternion
Quaternion
p19
g2
Ntp20
Rp21
(lp22
F-0.48522386191551786
aF-0.5331402283409646
aF-0.45743933026080974
aF0.5206424491749368
ababa(F0.5705831936225009
F1.2217304763960306
F0.00781250184218172
F4.3262275737791045e-20
tp23
aF-1.0
aF0.04321401337267861
ag0
(cgeometry_msgs.msg._Vector3Stamped
Vector3Stamped
p24
g2
Ntp25
Rp26
(lp27
g0
(cstd_msgs.msg._Header
Header
p28
g2
Ntp29
Rp30
(lp31
I0
ag0
(cgenpy.rostime
Time
p32
g2
Ntp33
Rp34
(lp35
I0
aI0
abaS'MicoGripper'
p36
abag0
(cgeometry_msgs.msg._Vector3
Vector3
p37
g2
Ntp38
Rp39
(lp40
F0.0
aF0.0
aF-1.0
abababag0
(g7
g2
Ntp41
Rp42
(lp43
I0
ag0
(g11
g2
Ntp44
Rp45
(lp46
g0
(g15
g2
Ntp47
Rp48
(lp49
F-0.08836868747032307
aF-0.002063242924496487
aF0.1395949868366637
abag0
(g19
g2
Ntp50
Rp51
(lp52
F-0.28673102569641834
aF0.014942577773411042
aF0.9543618448174547
aF0.08219189393845368
ababa(F0.5441711670598315
F0.0125
F0.09
F0.09
tp53
aF-1.0
aF0.0
ag0
(g24
g2
Ntp54
Rp55
(lp56
g0
(g28
g2
Ntp57
Rp58
(lp59
I0
ag0
(g32
g2
Ntp60
Rp61
(lp62
I0
aI0
abaS'MicoGripper'
p63
abag0
(g37
g2
Ntp64
Rp65
(lp66
F0.0
aF0.0
aF-1.0
abababag0
(g7
g2
Ntp67
Rp68
(lp69
I0
ag0
(g11
g2
Ntp70
Rp71
(lp72
g0
(g15
g2
Ntp73
Rp74
(lp75
F0.01823295748257502
aF-0.14469577209859352
aF0.0846459348390474
abag0
(g19
g2
Ntp76
Rp77
(lp78
F-0.4351373194968997
aF0.3333176425455388
aF-0.6482497800438267
aF-0.5285140348392539
ababa(F0.6043773443280567
F0.028125
F0.061875000000000006
F0.061875000000000006
tp79
aF0.017813654902996405
aF0.029061050132687102
ag0
(g24
g2
Ntp80
Rp81
(lp82
g0
(g28
g2
Ntp83
Rp84
(lp85
I0
ag0
(g32
g2
Ntp86
Rp87
(lp88
I0
aI0
abaS'MicoGripper'
p89
abag0
(g37
g2
Ntp90
Rp91
(lp92
F0.0
aF0.0
aF-1.0
abababag0
(g7
g2
Ntp93
Rp94
(lp95
I0
ag0
(g11
g2
Ntp96
Rp97
(lp98
g0
(g15
g2
Ntp99
Rp100
(lp101
F0.04617465109671409
aF0.10158145985338925
aF0.1440575897818662
abag0
(g19
g2
Ntp102
Rp103
(lp104
F-0.2262684393431311
aF-0.26616365268416275
aF-0.8943135720629279
aF0.27957599712975073
ababa(F0.3214637200565498
F0.004375
F0.043750000000000004
F0.043750000000000004
tp105
aF0.03389989963770074
aF0.16898909143025417
ag0
(g24
g2
Ntp106
Rp107
(lp108
g0
(g28
g2
Ntp109
Rp110
(lp111
I0
ag0
(g32
g2
Ntp112
Rp113
(lp114
I0
aI0
abaS'MicoGripper'
p115
abag0
(g37
g2
Ntp116
Rp117
(lp118
F0.0
aF0.0
aF-1.0
abababag0
(g7
g2
Ntp119
Rp120
(lp121
I0
ag0
(g11
g2
Ntp122
Rp123
(lp124
g0
(g15
g2
Ntp125
Rp126
(lp127
F0.151725449944359
aF-0.004663668916527021
aF0.05950455903981994
abag0
(g19
g2
Ntp128
Rp129
(lp130
F-0.1961754733918737
aF-0.6110403452087978
aF-0.14406275332411714
aF-0.7532534787647929
ababa(F0.5851589964462687
F0.09812499999999999
F0.005
F0.025
tp131
aF0.12593301854448882
aF0.7061989753140804
ag0
(g24
g2
Ntp132
Rp133
(lp134
g0
(g28
g2
Ntp135
Rp136
(lp137
I0
ag0
(g32
g2
Ntp138
Rp139
(lp140
I0
aI0
abaS'MicoGripper'
p141
abag0
(g37
g2
Ntp142
Rp143
(lp144
F0.0
aF0.0
aF-1.0
abababag0
(g7
g2
Ntp145
Rp146
(lp147
I0
ag0
(g11
g2
Ntp148
Rp149
(lp150
g0
(g15
g2
Ntp151
Rp152
(lp153
F-0.08393452227917467
aF-0.11884218599289706
aF0.045165016488615026
abag0
(g19
g2
Ntp154
Rp155
(lp156
F-0.38401337523746987
aF0.5000094579969329
aF-0.2825350904221873
aF-0.7229786941760221
ababa(F0.6014520552780896
F0.0175
F0.005
F0.6125000000000004
tp157
aF0.0058282575224780885
aF0.5286103477020069
ag0
(g24
g2
Ntp158
Rp159
(lp160
g0
(g28
g2
Ntp161
Rp162
(lp163
I0
ag0
(g32
g2
Ntp164
Rp165
(lp166
I0
aI0
abaS'MicoGripper'
p167
abag0
(g37
g2
Ntp168
Rp169
(lp170
F0.0
aF0.0
aF-1.0
abababag0
(g7
g2
Ntp171
Rp172
(lp173
I0
ag0
(g11
g2
Ntp174
Rp175
(lp176
g0
(g15
g2
Ntp177
Rp178
(lp179
F-0.1250623349827369
aF0.11965377103934419
aF0.05198796565729566
abag0
(g19
g2
Ntp180
Rp181
(lp182
F-0.29771943159934317
aF-0.5674498737586343
aF-0.1831811321712581
aF0.7455256223872727
ababa(F0.267428126790201
F0.04625
F0.13499999999999998
F0.13499999999999998
tp183
aF-1.0
aF0.0
ag0
(g24
g2
Ntp184
Rp185
(lp186
g0
(g28
g2
Ntp187
Rp188
(lp189
I0
ag0
(g32
g2
Ntp190
Rp191
(lp192
I0
aI0
abaS'MicoGripper'
p193
abag0
(g37
g2
Ntp194
Rp195
(lp196
F0.0
aF0.0
aF-1.0
abababag0
(g7
g2
Ntp197
Rp198
(lp199
I0
ag0
(g11
g2
Ntp200
Rp201
(lp202
g0
(g15
g2
Ntp203
Rp204
(lp205
F-0.1609455809396108
aF0.02816597022164958
aF0.08399997235051442
abag0
(g19
g2
Ntp206
Rp207
(lp208
F-0.5059406263711942
aF0.2501614797723503
aF0.8034931349292196
aF-0.1893200959931269
ababa(F0.44078605228453893
F0.036875
F0.036875
F0.036875
tp209
aF-1.0
aF0.0
ag0
(g24
g2
Ntp210
Rp211
(lp212
g0
(g28
g2
Ntp213
Rp214
(lp215
I0
ag0
(g32
g2
Ntp216
Rp217
(lp218
I0
aI0
abaS'MicoGripper'
p219
abag0
(g37
g2
Ntp220
Rp221
(lp222
F0.0
aF0.0
aF-1.0
abababag0
(g7
g2
Ntp223
Rp224
(lp225
I0
ag0
(g11
g2
Ntp226
Rp227
(lp228
g0
(g15
g2
Ntp229
Rp230
(lp231
F0.005332095702407308
aF-0.1511785171677641
aF0.08285177438218605
abag0
(g19
g2
Ntp232
Rp233
(lp234
F-0.4343816343105043
aF0.30200212007938076
aF-0.5529771056236212
aF-0.6436797619138084
ababa(F0.46998756467034153
F0.04125
F0.11124999999999999
F0.11124999999999999
tp235
aF-1.0
aF0.0
ag0
(g24
g2
Ntp236
Rp237
(lp238
g0
(g28
g2
Ntp239
Rp240
(lp241
I0
ag0
(g32
g2
Ntp242
Rp243
(lp244
I0
aI0
abaS'MicoGripper'
p245
abag0
(g37
g2
Ntp246
Rp247
(lp248
F0.0
aF0.0
aF-1.0
abababag0
(g7
g2
Ntp249
Rp250
(lp251
I0
ag0
(g11
g2
Ntp252
Rp253
(lp254
g0
(g15
g2
Ntp255
Rp256
(lp257
F-0.12322450661260291
aF-0.0007415637288427436
aF0.1144832738043498
abag0
(g19
g2
Ntp258
Rp259
(lp260
F-0.40841287732819787
aF0.02509429451495429
aF0.9121706793401357
aF0.02266825461861599
ababa(F0.47652077946135674
F0.083125
F0.126875
F0.126875
tp261
aF0.050393656160083976
aF0.08128797830704129
ag0
(g24
g2
Ntp262
Rp263
(lp264
g0
(g28
g2
Ntp265
Rp266
(lp267
I0
ag0
(g32
g2
Ntp268
Rp269
(lp270
I0
aI0
abaS'MicoGripper'
p271
abag0
(g37
g2
Ntp272
Rp273
(lp274
F0.0
aF0.0
aF-1.0
abababag0
(g7
g2
Ntp275
Rp276
(lp277
I0
ag0
(g11
g2
Ntp278
Rp279
(lp280
g0
(g15
g2
Ntp281
Rp282
(lp283
F0.09689960715367153
aF0.14021091443307895
aF0.06124566469140142
abag0
(g19
g2
Ntp284
Rp285
(lp286
F-0.5570090874721648
aF-0.24320765707833084
aF-0.6446713334384852
aF0.46366990829095317
ababa(F0.3459949656223573
F0.03125
F0.0875
F0.0875
tp287
aF-1.0
aF0.0
ag0
(g24
g2
Ntp288
Rp289
(lp290
g0
(g28
g2
Ntp291
Rp292
(lp293
I0
ag0
(g32
g2
Ntp294
Rp295
(lp296
I0
aI0
abaS'MicoGripper'
p297
abag0
(g37
g2
Ntp298
Rp299
(lp300
F0.0
aF0.0
aF-1.0
abababag0
(g7
g2
Ntp301
Rp302
(lp303
I0
ag0
(g11
g2
Ntp304
Rp305
(lp306
g0
(g15
g2
Ntp307
Rp308
(lp309
F0.12333031261249058
aF-0.005281623546122687
aF0.14017734869877527
abag0
(g19
g2
Ntp310
Rp311
(lp312
F-0.1632752117718837
aF-0.3604410907346774
aF-0.33419124948259854
aF-0.8554178125922457
ababa(F0.27604184905780066
F0.07125000000000001
F0.08125
F0.08125
tp313
aF-1.0
aF0.0
ag0
(g24
g2
Ntp314
Rp315
(lp316
g0
(g28
g2
Ntp317
Rp318
(lp319
I0
ag0
(g32
g2
Ntp320
Rp321
(lp322
I0
aI0
abaS'MicoGripper'
p323
abag0
(g37
g2
Ntp324
Rp325
(lp326
F0.0
aF0.0
aF-1.0
abababag0
(g7
g2
Ntp327
Rp328
(lp329
I0
ag0
(g11
g2
Ntp330
Rp331
(lp332
g0
(g15
g2
Ntp333
Rp334
(lp335
F-0.1358186716590302
aF0.07193779868550584
aF0.11599538479804264
abag0
(g19
g2
Ntp336
Rp337
(lp338
F-0.40941962047136227
aF0.2288264572297747
aF0.879078802406325
aF0.08505578172362753
ababa(F0.5096221060364238
F0.081875
F0.040625
F0.040625
tp339
aF0.024984530697263543
aF0.10689326060695123
ag0
(g24
g2
Ntp340
Rp341
(lp342
g0
(g28
g2
Ntp343
Rp344
(lp345
I0
ag0
(g32
g2
Ntp346
Rp347
(lp348
I0
aI0
abaS'MicoGripper'
p349
abag0
(g37
g2
Ntp350
Rp351
(lp352
F0.0
aF0.0
aF-1.0
abababag0
(g7
g2
Ntp353
Rp354
(lp355
I0
ag0
(g11
g2
Ntp356
Rp357
(lp358
g0
(g15
g2
Ntp359
Rp360
(lp361
F0.1614399778020264
aF-0.04531006958153014
aF0.040050528003870524
abag0
(g19
g2
Ntp362
Rp363
(lp364
F-0.20549806261608278
aF-0.6005588367931668
aF0.0050968868272966705
aF-0.7727054105901839
ababa(F0.483984745165766
F0.065
F0.0625
F0.0625
tp365
aF0.022142066846483288
aF0.07456069788528145
ag0
(g24
g2
Ntp366
Rp367
(lp368
g0
(g28
g2
Ntp369
Rp370
(lp371
I0
ag0
(g32
g2
Ntp372
Rp373
(lp374
I0
aI0
abaS'MicoGripper'
p375
abag0
(g37
g2
Ntp376
Rp377
(lp378
F0.0
aF0.0
aF-1.0
abababag0
(g7
g2
Ntp379
Rp380
(lp381
I0
ag0
(g11
g2
Ntp382
Rp383
(lp384
g0
(g15
g2
Ntp385
Rp386
(lp387
F-0.1486610378809819
aF0.07444401060667313
aF0.052194146669274306
abag0
(g19
g2
Ntp388
Rp389
(lp390
F-0.5833331469922574
aF0.1243328448492086
aF0.7677247178179393
aF0.2342275410005787
ababa(F0.4300412039155145
F0.07625000000000001
F0.10375
F0.10375
tp391
aF0.01932858620668873
aF0.06035642167705235
ag0
(g24
g2
Ntp392
Rp393
(lp394
g0
(g28
g2
Ntp395
Rp396
(lp397
I0
ag0
(g32
g2
Ntp398
Rp399
(lp400
I0
aI0
abaS'MicoGripper'
p401
abag0
(g37
g2
Ntp402
Rp403
(lp404
F0.0
aF0.0
aF-1.0
abababag0
(g7
g2
Ntp405
Rp406
(lp407
I0
ag0
(g11
g2
Ntp408
Rp409
(lp410
g0
(g15
g2
Ntp411
Rp412
(lp413
F0.12099218559346711
aF0.08457154172040568
aF0.08422890619499543
abag0
(g19
g2
Ntp414
Rp415
(lp416
F-0.4753519467281613
aF-0.15685850181975725
aF-0.8253101354239791
aF0.2613409985346
ababa(F0.3495549808904832
F0.0325
F0.14375
F0.14375
tp417
aF-1.0
aF0.0
ag0
(g24
g2
Ntp418
Rp419
(lp420
g0
(g28
g2
Ntp421
Rp422
(lp423
I0
ag0
(g32
g2
Ntp424
Rp425
(lp426
I0
aI0
abaS'MicoGripper'
p427
abag0
(g37
g2
Ntp428
Rp429
(lp430
F0.0
aF0.0
aF-1.0
abababag0
(g7
g2
Ntp431
Rp432
(lp433
I0
ag0
(g11
g2
Ntp434
Rp435
(lp436
g0
(g15
g2
Ntp437
Rp438
(lp439
F0.10099288701363508
aF0.14019157181717243
aF0.06938493001848234
abag0
(g19
g2
Ntp440
Rp441
(lp442
F-0.556866096204929
aF-0.2430498999590145
aF-0.6447811212518446
aF0.4637717139979647
ababa(F0.37224234060299727
F0.05750000000000001
F0.06375
F0.06375
tp443
aF-1.0
aF0.0
ag0
(g24
g2
Ntp444
Rp445
(lp446
g0
(g28
g2
Ntp447
Rp448
(lp449
I0
ag0
(g32
g2
Ntp450
Rp451
(lp452
I0
aI0
abaS'MicoGripper'
p453
abag0
(g37
g2
Ntp454
Rp455
(lp456
F0.0
aF0.0
aF-1.0
abababag0
(g7
g2
Ntp457
Rp458
(lp459
I0
ag0
(g11
g2
Ntp460
Rp461
(lp462
g0
(g15
g2
Ntp463
Rp464
(lp465
F0.05409600900419601
aF0.10700413578097508
aF0.11997224831469464
abag0
(g19
g2
Ntp466
Rp467
(lp468
F-0.12277482545845059
aF0.416315516544816
aF0.6270638798105823
aF0.6468374011717084
ababa(F0.5475592390658492
F0.034375
F0.049375
F0.049375
tp469
aF0.019468516602431596
aF0.060457754563716604
ag0
(g24
g2
Ntp470
Rp471
(lp472
g0
(g28
g2
Ntp473
Rp474
(lp475
I0
ag0
(g32
g2
Ntp476
Rp477
(lp478
I0
aI0
abaS'MicoGripper'
p479
abag0
(g37
g2
Ntp480
Rp481
(lp482
F0.0
aF0.0
aF-1.0
abababag0
(g7
g2
Ntp483
Rp484
(lp485
I0
ag0
(g11
g2
Ntp486
Rp487
(lp488
g0
(g15
g2
Ntp489
Rp490
(lp491
F-0.07869245465131948
aF-0.1185452948284915
aF0.0642655802322793
abag0
(g19
g2
Ntp492
Rp493
(lp494
F-0.38123820193133406
aF0.5015010760138247
aF-0.282579609293
aF-0.7233967573586123
ababa(F0.6281240344890393
F0.0775
F0.11249999999999999
F0.6400000000000003
tp495
aF-1.0
aF0.24957571961620142
ag0
(g24
g2
Ntp496
Rp497
(lp498
g0
(g28
g2
Ntp499
Rp500
(lp501
I0
ag0
(g32
g2
Ntp502
Rp503
(lp504
I0
aI0
abaS'MicoGripper'
p505
abag0
(g37
g2
Ntp506
Rp507
(lp508
F0.0
aF0.0
aF-1.0
abababag0
(g7
g2
Ntp509
Rp510
(lp511
I0
ag0
(g11
g2
Ntp512
Rp513
(lp514
g0
(g15
g2
Ntp515
Rp516
(lp517
F-0.1255139940830064
aF0.07362827109894447
aF0.1055912497178967
abag0
(g19
g2
Ntp518
Rp519
(lp520
F-0.41092511232555495
aF0.21412795217794003
aF0.8748222152748614
aF0.1413359961860252
ababa(F0.5252335959510464
F0.09187499999999998
F0.015625
F0.015625
tp521
aF0.007671280243051609
aF0.03653527362135403
ag0
(g24
g2
Ntp522
Rp523
(lp524
g0
(g28
g2
Ntp525
Rp526
(lp527
I0
ag0
(g32
g2
Ntp528
Rp529
(lp530
I0
aI0
abaS'MicoGripper'
p531
abag0
(g37
g2
Ntp532
Rp533
(lp534
F0.0
aF0.0
aF-1.0
abababaa(F-1.7910104764907027
F-1.7403466105091798
F-1.7386654046935728
F-1.703079016622444
F-1.6383850275347058
F-1.6335127818749018
F-1.603859006275656
F-1.6038060613861735
F-1.5970047698450696
F-1.584429507506505
F-1.5791374764310078
F-1.5786717311915266
F-1.5774661800735181
F-1.570133427256592
F-1.5652215641536296
F-1.5648991901130123
F-1.5583733376147362
F-1.5554103723911565
F-1.54771486508089
F-1.5456876647612676
tp535
aS'GUIDED_POTENTIAL_QUALITY_ENERGY'
p536
ab.