(lp0
((F-0.8083734932078771
F-0.49581461386677533
F0.03172303758521321
tp1
(F0.17507155657349713
F-0.7128826268414876
F0.020148755318374185
F0.6787800365992167
tp2
tp3
a((F-0.8051399677037572
F-0.4987341656073931
F0.043039390722253025
tp4
(F0.8187851027439365
F-0.04424596447250132
F-0.5536490115840459
F0.14527911799191545
tp5
tp6
a((F-0.806724030998881
F-0.4905638934799617
F0.05122845451602626
tp7
(F0.08084524134746782
F-0.8170667657707368
F0.06912494750801747
F0.5666459995944841
tp8
tp9
a((F-0.8105623103070864
F-0.5077190597005752
F0.045017450061584835
tp10
(F0.03512165126900517
F0.8958652731273515
F-0.15111351020820604
F-0.4163611281677828
tp11
tp12
a((F-0.8123439309554152
F-0.5056596000932504
F0.05076902528753611
tp13
(F0.03802086198745293
F-0.7683298395864263
F-0.04018579309880673
F0.6376588223241701
tp14
tp15
a((F-0.8115987805119561
F-0.49246171042659553
F0.04509449898023616
tp16
(F0.7494229655227459
F0.007021145451168322
F-0.6619474345490808
F-0.011896056385936167
tp17
tp18
a((F-0.7990554480099847
F-0.5011693527544917
F0.03971716429286541
tp19
(F0.6685693689080868
F0.5504201766320598
F-0.46305931753073537
F0.1887556530600991
tp20
tp21
a((F-0.8084068915696059
F-0.48937779528772923
F0.02795546848814981
tp22
(F0.7951667274669636
F0.052125008221342174
F-0.6020283063989411
F-0.0505448052902326
tp23
tp24
a.