(lp0
ccopy_reg
_reconstructor
p1
(cgraspit_interface.msg._Grasp
Grasp
p2
c__builtin__
object
p3
Ntp4
Rp5
(lp6
I0
ag1
(cgeometry_msgs.msg._Pose
Pose
p7
g3
Ntp8
Rp9
(lp10
g1
(cgeometry_msgs.msg._Point
Point
p11
g3
Ntp12
Rp13
(lp14
F-0.012701851101714425
aF0.09684102988964428
aF0.13502369441905704
abag1
(cgeometry_msgs.msg._Quaternion
Quaternion
p15
g3
Ntp16
Rp17
(lp18
F-0.1651047885205593
aF-0.3453967071801247
aF-0.6916105235410588
aF0.6124674744049445
ababa(F0.6412747434474486
F1.2217304763960306
F0.0008789064582686149
F0.007812501842272468
tp19
aF-1.0
aF0.05582463366213665
ag1
(cgeometry_msgs.msg._Vector3Stamped
Vector3Stamped
p20
g3
Ntp21
Rp22
(lp23
g1
(cstd_msgs.msg._Header
Header
p24
g3
Ntp25
Rp26
(lp27
I0
ag1
(cgenpy.rostime
Time
p28
g3
Ntp29
Rp30
(lp31
I0
aI0
abaS'MicoGripper'
p32
abag1
(cgeometry_msgs.msg._Vector3
Vector3
p33
g3
Ntp34
Rp35
(lp36
F0.0
aF0.0
aF-1.0
abababag1
(g2
g3
Ntp37
Rp38
(lp39
I0
ag1
(g7
g3
Ntp40
Rp41
(lp42
g1
(g11
g3
Ntp43
Rp44
(lp45
F0.1414588787901811
aF0.024740572079221188
aF0.05175989510047366
abag1
(g15
g3
Ntp46
Rp47
(lp48
F-0.5958115042991614
aF-0.15165449840397188
aF-0.7886671319548175
aF0.003703975266195882
ababa(F0.6214472973419392
F0.050625
F0.080625
F0.125625
tp49
aF0.0649896647769132
aF1.0032070930563883
ag1
(g20
g3
Ntp50
Rp51
(lp52
g1
(g24
g3
Ntp53
Rp54
(lp55
I0
ag1
(g28
g3
Ntp56
Rp57
(lp58
I0
aI0
abaS'MicoGripper'
p59
abag1
(g33
g3
Ntp60
Rp61
(lp62
F0.0
aF0.0
aF-1.0
abababag1
(g2
g3
Ntp63
Rp64
(lp65
I0
ag1
(g7
g3
Ntp66
Rp67
(lp68
g1
(g11
g3
Ntp69
Rp70
(lp71
F-0.01666944836561557
aF0.14573876601368027
aF0.09402702995416483
abag1
(g15
g3
Ntp72
Rp73
(lp74
F-0.33378850629384355
aF-0.40344826219881164
aF-0.5209030519283434
aF0.6741474195505176
ababa(F0.5766564796068394
F0.0325
F0.065
F0.065
tp75
aF0.05257109540187261
aF0.09412490384460441
ag1
(g20
g3
Ntp76
Rp77
(lp78
g1
(g24
g3
Ntp79
Rp80
(lp81
I0
ag1
(g28
g3
Ntp82
Rp83
(lp84
I0
aI0
abaS'MicoGripper'
p85
abag1
(g33
g3
Ntp86
Rp87
(lp88
F0.0
aF0.0
aF-1.0
abababag1
(g2
g3
Ntp89
Rp90
(lp91
I0
ag1
(g7
g3
Ntp92
Rp93
(lp94
g1
(g11
g3
Ntp95
Rp96
(lp97
F0.09718199004612121
aF0.10166747070910293
aF0.06383920519790166
abag1
(g15
g3
Ntp98
Rp99
(lp100
F-0.1989973990218816
aF0.5116057020871647
aF0.2872338691972962
aF0.7849562695847305
ababa(F0.5922195959416803
F0.04625
F0.06125
F0.24125000000000008
tp101
aF0.07628621860042845
aF0.2863280160736745
ag1
(g20
g3
Ntp102
Rp103
(lp104
g1
(g24
g3
Ntp105
Rp106
(lp107
I0
ag1
(g28
g3
Ntp108
Rp109
(lp110
I0
aI0
abaS'MicoGripper'
p111
abag1
(g33
g3
Ntp112
Rp113
(lp114
F0.0
aF0.0
aF-1.0
abababag1
(g2
g3
Ntp115
Rp116
(lp117
I0
ag1
(g7
g3
Ntp118
Rp119
(lp120
g1
(g11
g3
Ntp121
Rp122
(lp123
F0.14594332574577423
aF-0.013526328285826417
aF0.015006884029990602
abag1
(g15
g3
Ntp124
Rp125
(lp126
F-0.07210977352895669
aF-0.7263802083153852
aF0.03663190285489547
aF-0.6825174556174587
ababa(F0.5837831493092185
F0.07125000000000001
F0.19125000000000003
F0.2612500000000001
tp127
aF0.21134184968653053
aF0.9028270957076155
ag1
(g20
g3
Ntp128
Rp129
(lp130
g1
(g24
g3
Ntp131
Rp132
(lp133
I0
ag1
(g28
g3
Ntp134
Rp135
(lp136
I0
aI0
abaS'MicoGripper'
p137
abag1
(g33
g3
Ntp138
Rp139
(lp140
F0.0
aF0.0
aF-1.0
abababag1
(g2
g3
Ntp141
Rp142
(lp143
I0
ag1
(g7
g3
Ntp144
Rp145
(lp146
g1
(g11
g3
Ntp147
Rp148
(lp149
F0.04790917886193049
aF-0.1238804252758294
aF0.08353133912981651
abag1
(g15
g3
Ntp150
Rp151
(lp152
F-0.4599495927149756
aF-0.34747333750650394
aF0.16031282770688474
aF-0.8012542974337437
ababa(F0.7127067611244049
F0.05625000000000001
F0.3812500000000002
F0.4762500000000003
tp153
aF-1.0
aF0.10134075121617632
ag1
(g20
g3
Ntp154
Rp155
(lp156
g1
(g24
g3
Ntp157
Rp158
(lp159
I0
ag1
(g28
g3
Ntp160
Rp161
(lp162
I0
aI0
abaS'MicoGripper'
p163
abag1
(g33
g3
Ntp164
Rp165
(lp166
F0.0
aF0.0
aF-1.0
abababag1
(g2
g3
Ntp167
Rp168
(lp169
I0
ag1
(g7
g3
Ntp170
Rp171
(lp172
g1
(g11
g3
Ntp173
Rp174
(lp175
F0.14837540132755547
aF-0.09733844913261004
aF0.03360456021967772
abag1
(g15
g3
Ntp176
Rp177
(lp178
F-0.21720055839486083
aF-0.5791369727903067
aF0.2474022117462985
aF-0.7457991886582338
ababa(F0.40597819017023656
F3.2746995e-316
F3.2738695e-316
F1.2217304763960306
tp179
aF-1.0
aF0.003909985517779545
ag1
(g20
g3
Ntp180
Rp181
(lp182
g1
(g24
g3
Ntp183
Rp184
(lp185
I0
ag1
(g28
g3
Ntp186
Rp187
(lp188
I0
aI0
abaS'MicoGripper'
p189
abag1
(g33
g3
Ntp190
Rp191
(lp192
F0.0
aF0.0
aF-1.0
abababag1
(g2
g3
Ntp193
Rp194
(lp195
I0
ag1
(g7
g3
Ntp196
Rp197
(lp198
g1
(g11
g3
Ntp199
Rp200
(lp201
F-0.15234866485252496
aF0.09545359231712795
aF0.04023610683086407
abag1
(g15
g3
Ntp202
Rp203
(lp204
F-0.5714978219522694
aF0.17910236844903013
aF0.7571332226212684
aF0.2608866886655832
ababa(F0.39090463633881456
F0.08249999999999999
F0.03875000000000001
F0.03875000000000001
tp205
aF0.014687404853766739
aF0.03866191565147393
ag1
(g20
g3
Ntp206
Rp207
(lp208
g1
(g24
g3
Ntp209
Rp210
(lp211
I0
ag1
(g28
g3
Ntp212
Rp213
(lp214
I0
aI0
abaS'MicoGripper'
p215
abag1
(g33
g3
Ntp216
Rp217
(lp218
F0.0
aF0.0
aF-1.0
abababag1
(g2
g3
Ntp219
Rp220
(lp221
I0
ag1
(g7
g3
Ntp222
Rp223
(lp224
g1
(g11
g3
Ntp225
Rp226
(lp227
F0.053133749793148735
aF0.07552354928255312
aF0.14559663401665515
abag1
(g15
g3
Ntp228
Rp229
(lp230
F-0.24913031340438918
aF-0.14351274452353383
aF-0.8147398617557315
aF0.5035247131657046
ababa(F0.3468352206970585
F0.06625
F0.12124999999999997
F0.12124999999999997
tp231
aF0.018226741509480004
aF0.17099777507806324
ag1
(g20
g3
Ntp232
Rp233
(lp234
g1
(g24
g3
Ntp235
Rp236
(lp237
I0
ag1
(g28
g3
Ntp238
Rp239
(lp240
I0
aI0
abaS'MicoGripper'
p241
abag1
(g33
g3
Ntp242
Rp243
(lp244
F0.0
aF0.0
aF-1.0
abababag1
(g2
g3
Ntp245
Rp246
(lp247
I0
ag1
(g7
g3
Ntp248
Rp249
(lp250
g1
(g11
g3
Ntp251
Rp252
(lp253
F0.009807908999896291
aF0.15402584802177757
aF0.05060310240385896
abag1
(g15
g3
Ntp254
Rp255
(lp256
F-0.4319228962618157
aF0.4515888134416276
aF0.46964894778487304
aF0.6236505600925485
ababa(F0.4298168607651604
F6.93983514001475e-310
F1.0471975511965976
F1.2217304763960306
tp257
aF0.20789957647315627
aF2.499393628193167
ag1
(g20
g3
Ntp258
Rp259
(lp260
g1
(g24
g3
Ntp261
Rp262
(lp263
I0
ag1
(g28
g3
Ntp264
Rp265
(lp266
I0
aI0
abaS'MicoGripper'
p267
abag1
(g33
g3
Ntp268
Rp269
(lp270
F0.0
aF0.0
aF-1.0
abababa.