(lp0
ccopy_reg
_reconstructor
p1
(cgraspit_interface.msg._Grasp
Grasp
p2
c__builtin__
object
p3
Ntp4
Rp5
(lp6
I0
ag1
(cgeometry_msgs.msg._Pose
Pose
p7
g3
Ntp8
Rp9
(lp10
g1
(cgeometry_msgs.msg._Point
Point
p11
g3
Ntp12
Rp13
(lp14
F0.05468634854176784
aF-0.1477440617050645
aF0.2468675417415223
abag1
(cgeometry_msgs.msg._Quaternion
Quaternion
p15
g3
Ntp16
Rp17
(lp18
F-0.2250425323904236
aF-0.4429765720948328
aF0.6451287165866566
aF-0.5804623624539923
ababa(F0.1961147464583722
F1.2217304763960306
F5.73e-322
F0.0
tp19
aF0.0037987739572929446
aF0.003526029806182267
ag1
(cgeometry_msgs.msg._Vector3Stamped
Vector3Stamped
p20
g3
Ntp21
Rp22
(lp23
g1
(cstd_msgs.msg._Header
Header
p24
g3
Ntp25
Rp26
(lp27
I0
ag1
(cgenpy.rostime
Time
p28
g3
Ntp29
Rp30
(lp31
I0
aI0
abaS'MicoGripper'
p32
abag1
(cgeometry_msgs.msg._Vector3
Vector3
p33
g3
Ntp34
Rp35
(lp36
F0.0
aF0.0
aF-1.0
abababag1
(g2
g3
Ntp37
Rp38
(lp39
I0
ag1
(g7
g3
Ntp40
Rp41
(lp42
g1
(g11
g3
Ntp43
Rp44
(lp45
F0.15655852404513515
aF0.07808438443553797
aF0.13088464654935528
abag1
(g15
g3
Ntp46
Rp47
(lp48
F-0.7395878697414465
aF-0.08248061847255975
aF-0.6118450191890183
aF0.26805298543624345
ababa(F0.47918121545533177
F0.065
F0.04125
F0.04125
tp49
aF-1.0
aF0.0011487086566072079
ag1
(g20
g3
Ntp50
Rp51
(lp52
g1
(g24
g3
Ntp53
Rp54
(lp55
I0
ag1
(g28
g3
Ntp56
Rp57
(lp58
I0
aI0
abaS'MicoGripper'
p59
abag1
(g33
g3
Ntp60
Rp61
(lp62
F0.0
aF0.0
aF-1.0
abababag1
(g2
g3
Ntp63
Rp64
(lp65
I0
ag1
(g7
g3
Ntp66
Rp67
(lp68
g1
(g11
g3
Ntp69
Rp70
(lp71
F0.10850618110602703
aF0.0003586266097781613
aF0.32576757853069227
abag1
(g15
g3
Ntp72
Rp73
(lp74
F-0.3208758017428407
aF-0.10989179577075515
aF-0.9155518973320307
aF-0.21616483610866669
ababa(F0.5117186241800097
F0.035625
F0.050625
F0.050625
tp75
aF3.3187522174848993e-11
aF0.001744349384384819
ag1
(g20
g3
Ntp76
Rp77
(lp78
g1
(g24
g3
Ntp79
Rp80
(lp81
I0
ag1
(g28
g3
Ntp82
Rp83
(lp84
I0
aI0
abaS'MicoGripper'
p85
abag1
(g33
g3
Ntp86
Rp87
(lp88
F0.0
aF0.0
aF-1.0
abababag1
(g2
g3
Ntp89
Rp90
(lp91
I0
ag1
(g7
g3
Ntp92
Rp93
(lp94
g1
(g11
g3
Ntp95
Rp96
(lp97
F0.09764473563491252
aF-0.08464928653584798
aF0.285516978678126
abag1
(g15
g3
Ntp98
Rp99
(lp100
F-0.3539649561486243
aF0.029725639021662014
aF-0.7610035227518452
aF-0.5428617085066306
ababa(F0.16731679281165512
F0.00375
F0.030625
F0.030625
tp101
aF0.004492860119082474
aF0.0021439184042163417
ag1
(g20
g3
Ntp102
Rp103
(lp104
g1
(g24
g3
Ntp105
Rp106
(lp107
I0
ag1
(g28
g3
Ntp108
Rp109
(lp110
I0
aI0
abaS'MicoGripper'
p111
abag1
(g33
g3
Ntp112
Rp113
(lp114
F0.0
aF0.0
aF-1.0
abababag1
(g2
g3
Ntp115
Rp116
(lp117
I0
ag1
(g7
g3
Ntp118
Rp119
(lp120
g1
(g11
g3
Ntp121
Rp122
(lp123
F0.1461201197717032
aF-0.03659120382497508
aF0.23934778933288997
abag1
(g15
g3
Ntp124
Rp125
(lp126
F-0.3038334419758026
aF-0.5187605499136979
aF-0.20011323224994063
aF-0.7736455426542932
ababa(F0.3864741291626247
F0.07624999828636647
F0.01
F0.01
tp127
aF-1.0
aF0.0022280441754107603
ag1
(g20
g3
Ntp128
Rp129
(lp130
g1
(g24
g3
Ntp131
Rp132
(lp133
I0
ag1
(g28
g3
Ntp134
Rp135
(lp136
I0
aI0
abaS'MicoGripper'
p137
abag1
(g33
g3
Ntp138
Rp139
(lp140
F0.0
aF0.0
aF-1.0
abababag1
(g2
g3
Ntp141
Rp142
(lp143
I0
ag1
(g7
g3
Ntp144
Rp145
(lp146
g1
(g11
g3
Ntp147
Rp148
(lp149
F0.05976746967456934
aF-0.14904070315501539
aF0.16469895080853303
abag1
(g15
g3
Ntp150
Rp151
(lp152
F-0.6142504663081618
aF0.4865158381242917
aF-0.5535504485799769
aF-0.2821003452166096
ababa(F0.4619717752490562
F0.053750000000000006
F0.043750000000000004
F0.043750000000000004
tp153
aF-1.0
aF0.0
ag1
(g20
g3
Ntp154
Rp155
(lp156
g1
(g24
g3
Ntp157
Rp158
(lp159
I0
ag1
(g28
g3
Ntp160
Rp161
(lp162
I0
aI0
abaS'MicoGripper'
p163
abag1
(g33
g3
Ntp164
Rp165
(lp166
F0.0
aF0.0
aF-1.0
abababag1
(g2
g3
Ntp167
Rp168
(lp169
I0
ag1
(g7
g3
Ntp170
Rp171
(lp172
g1
(g11
g3
Ntp173
Rp174
(lp175
F0.15067832406331907
aF-0.09146927667564357
aF0.18188917817274297
abag1
(g15
g3
Ntp176
Rp177
(lp178
F-0.6480453801045167
aF0.17210884575616286
aF-0.7261423694718288
aF-0.15209533127453967
ababa(F0.44183317682870427
F0.02125
F0.04625
F0.04625
tp179
aF-1.0
aF0.009344762032935161
ag1
(g20
g3
Ntp180
Rp181
(lp182
g1
(g24
g3
Ntp183
Rp184
(lp185
I0
ag1
(g28
g3
Ntp186
Rp187
(lp188
I0
aI0
abaS'MicoGripper'
p189
abag1
(g33
g3
Ntp190
Rp191
(lp192
F0.0
aF0.0
aF-1.0
abababag1
(g2
g3
Ntp193
Rp194
(lp195
I0
ag1
(g7
g3
Ntp196
Rp197
(lp198
g1
(g11
g3
Ntp199
Rp200
(lp201
F0.07173417060339425
aF-0.03446397639817193
aF0.3699522627728812
abag1
(g15
g3
Ntp202
Rp203
(lp204
F-0.19787683192466057
aF0.06232192440217263
aF-0.97603127900844
aF0.06575469202587952
ababa(F0.5403390271707833
F0.02124999463558198
F4.67504693073574e-310
F1.1126075504368894e-306
tp205
aF-1.0
aF0.0
ag1
(g20
g3
Ntp206
Rp207
(lp208
g1
(g24
g3
Ntp209
Rp210
(lp211
I0
ag1
(g28
g3
Ntp212
Rp213
(lp214
I0
aI0
abaS'MicoGripper'
p215
abag1
(g33
g3
Ntp216
Rp217
(lp218
F0.0
aF0.0
aF-1.0
abababag1
(g2
g3
Ntp219
Rp220
(lp221
I0
ag1
(g7
g3
Ntp222
Rp223
(lp224
g1
(g11
g3
Ntp225
Rp226
(lp227
F0.18153585681665996
aF0.002835583143075118
aF0.12432933633279777
abag1
(g15
g3
Ntp228
Rp229
(lp230
F-0.6562371325301108
aF-0.09569641242208247
aF-0.7474655801056536
aF-0.03860348553588542
ababa(F0.5140269320280548
F0.0125
F0.035
F0.035
tp231
aF0.00699706220138592
aF0.0016263789329055687
ag1
(g20
g3
Ntp232
Rp233
(lp234
g1
(g24
g3
Ntp235
Rp236
(lp237
I0
ag1
(g28
g3
Ntp238
Rp239
(lp240
I0
aI0
abaS'MicoGripper'
p241
abag1
(g33
g3
Ntp242
Rp243
(lp244
F0.0
aF0.0
aF-1.0
abababag1
(g2
g3
Ntp245
Rp246
(lp247
I0
ag1
(g7
g3
Ntp248
Rp249
(lp250
g1
(g11
g3
Ntp251
Rp252
(lp253
F-0.1079509450421964
aF-0.1515584007425259
aF0.17385303254335047
abag1
(g15
g3
Ntp254
Rp255
(lp256
F-0.3811630057293044
aF0.486013883526027
aF-0.2785772890276884
aF-0.7354590145761595
ababa(F0.2032476659175093
F6.9261988779154e-310
F0.11666085468020915
F0.314985129454081
tp257
aF0.008541619369884984
aF0.0012051182936955226
ag1
(g20
g3
Ntp258
Rp259
(lp260
g1
(g24
g3
Ntp261
Rp262
(lp263
I0
ag1
(g28
g3
Ntp264
Rp265
(lp266
I0
aI0
abaS'MicoGripper'
p267
abag1
(g33
g3
Ntp268
Rp269
(lp270
F0.0
aF0.0
aF-1.0
abababag1
(g2
g3
Ntp271
Rp272
(lp273
I0
ag1
(g7
g3
Ntp274
Rp275
(lp276
g1
(g11
g3
Ntp277
Rp278
(lp279
F0.07373876180819158
aF-0.1204190572965553
aF0.2503351608563777
abag1
(g15
g3
Ntp280
Rp281
(lp282
F-0.5063568383856346
aF-0.41376761219777725
aF0.13784127859453385
aF-0.7439078553367201
ababa(F0.7737812236469123
F0.1625
F0.0675
F0.0675
tp283
aF-1.0
aF0.00584784796218221
ag1
(g20
g3
Ntp284
Rp285
(lp286
g1
(g24
g3
Ntp287
Rp288
(lp289
I0
ag1
(g28
g3
Ntp290
Rp291
(lp292
I0
aI0
abaS'MicoGripper'
p293
abag1
(g33
g3
Ntp294
Rp295
(lp296
F0.0
aF0.0
aF-1.0
abababag1
(g2
g3
Ntp297
Rp298
(lp299
I0
ag1
(g7
g3
Ntp300
Rp301
(lp302
g1
(g11
g3
Ntp303
Rp304
(lp305
F0.1548636661371135
aF0.07753219586436495
aF0.08694062986224546
abag1
(g15
g3
Ntp306
Rp307
(lp308
F-0.6870140361649795
aF-0.22390426341732902
aF-0.6816914602810288
aF0.11478391836736597
ababa(F0.38726344641168753
F0.0725
F0.05500000000000001
F0.05500000000000001
tp309
aF-1.0
aF0.0
ag1
(g20
g3
Ntp310
Rp311
(lp312
g1
(g24
g3
Ntp313
Rp314
(lp315
I0
ag1
(g28
g3
Ntp316
Rp317
(lp318
I0
aI0
abaS'MicoGripper'
p319
abag1
(g33
g3
Ntp320
Rp321
(lp322
F0.0
aF0.0
aF-1.0
abababag1
(g2
g3
Ntp323
Rp324
(lp325
I0
ag1
(g7
g3
Ntp326
Rp327
(lp328
g1
(g11
g3
Ntp329
Rp330
(lp331
F0.07312436711961594
aF-0.1336551573456381
aF0.03425851811100041
abag1
(g15
g3
Ntp332
Rp333
(lp334
F-0.7713454543067826
aF0.4587655065346069
aF-0.37839780558573943
aF-0.22666164400313935
ababa(F0.15505812405858796
F0.01
F0.07875000000000001
F0.07875000000000001
tp335
aF0.01972734838932277
aF0.020875358015083445
ag1
(g20
g3
Ntp336
Rp337
(lp338
g1
(g24
g3
Ntp339
Rp340
(lp341
I0
ag1
(g28
g3
Ntp342
Rp343
(lp344
I0
aI0
abaS'MicoGripper'
p345
abag1
(g33
g3
Ntp346
Rp347
(lp348
F0.0
aF0.0
aF-1.0
abababag1
(g2
g3
Ntp349
Rp350
(lp351
I0
ag1
(g7
g3
Ntp352
Rp353
(lp354
g1
(g11
g3
Ntp355
Rp356
(lp357
F0.19083278147782592
aF0.04116385858669015
aF0.07110157492630442
abag1
(g15
g3
Ntp358
Rp359
(lp360
F-0.6040082490329329
aF-0.06194575407510712
aF-0.7833381900592269
aF0.13310912307941744
ababa(F0.35343087635445236
F0.05562500000000001
F0.06937499999999999
F0.06937499999999999
tp361
aF-1.0
aF0.0
ag1
(g20
g3
Ntp362
Rp363
(lp364
g1
(g24
g3
Ntp365
Rp366
(lp367
I0
ag1
(g28
g3
Ntp368
Rp369
(lp370
I0
aI0
abaS'MicoGripper'
p371
abag1
(g33
g3
Ntp372
Rp373
(lp374
F0.0
aF0.0
aF-1.0
abababag1
(g2
g3
Ntp375
Rp376
(lp377
I0
ag1
(g7
g3
Ntp378
Rp379
(lp380
g1
(g11
g3
Ntp381
Rp382
(lp383
F-0.11981090945610837
aF-0.11129145253190889
aF0.2250089393478417
abag1
(g15
g3
Ntp384
Rp385
(lp386
F-0.48899962500239474
aF0.5182583176783548
aF0.062759163202968
aF-0.6988196980185819
ababa(F0.26547818591224126
F0.07749999999999999
F0.05500000000000001
F0.05500000000000001
tp387
aF-1.0
aF0.0
ag1
(g20
g3
Ntp388
Rp389
(lp390
g1
(g24
g3
Ntp391
Rp392
(lp393
I0
ag1
(g28
g3
Ntp394
Rp395
(lp396
I0
aI0
abaS'MicoGripper'
p397
abag1
(g33
g3
Ntp398
Rp399
(lp400
F0.0
aF0.0
aF-1.0
abababag1
(g2
g3
Ntp401
Rp402
(lp403
I0
ag1
(g7
g3
Ntp404
Rp405
(lp406
g1
(g11
g3
Ntp407
Rp408
(lp409
F-0.1548168805770311
aF0.04351526556298895
aF0.17451086285707615
abag1
(g15
g3
Ntp410
Rp411
(lp412
F-0.7300126168821617
aF0.10352776173979612
aF0.6595869859594665
aF0.14597462003688447
ababa(F0.6042581069412072
F0.07125000000000001
F0.04
F0.04
tp413
aF0.0043717957524836894
aF0.0005916488135537166
ag1
(g20
g3
Ntp414
Rp415
(lp416
g1
(g24
g3
Ntp417
Rp418
(lp419
I0
ag1
(g28
g3
Ntp420
Rp421
(lp422
I0
aI0
abaS'MicoGripper'
p423
abag1
(g33
g3
Ntp424
Rp425
(lp426
F0.0
aF0.0
aF-1.0
abababag1
(g2
g3
Ntp427
Rp428
(lp429
I0
ag1
(g7
g3
Ntp430
Rp431
(lp432
g1
(g11
g3
Ntp433
Rp434
(lp435
F0.1688407806048447
aF-0.05480904895142815
aF0.2585909239549811
abag1
(g15
g3
Ntp436
Rp437
(lp438
F-0.2994545789894307
aF-0.5188069423557397
aF-0.11439646148009971
aF-0.7925148334804738
ababa(F0.3856195845062066
F0.06874999999999999
F0.061875
F0.061875
tp439
aF-1.0
aF0.0
ag1
(g20
g3
Ntp440
Rp441
(lp442
g1
(g24
g3
Ntp443
Rp444
(lp445
I0
ag1
(g28
g3
Ntp446
Rp447
(lp448
I0
aI0
abaS'MicoGripper'
p449
abag1
(g33
g3
Ntp450
Rp451
(lp452
F0.0
aF0.0
aF-1.0
abababag1
(g2
g3
Ntp453
Rp454
(lp455
I0
ag1
(g7
g3
Ntp456
Rp457
(lp458
g1
(g11
g3
Ntp459
Rp460
(lp461
F0.0022246045193531935
aF-0.09921834102622311
aF0.053211259422805926
abag1
(g15
g3
Ntp462
Rp463
(lp464
F-0.5777645163087706
aF-0.7687184813422295
aF0.24790936273298247
aF-0.11747769152786068
ababa(F0.3465902962290628
F0.07312500000000001
F0.039375
F0.039375
tp465
aF-1.0
aF0.012882991713027302
ag1
(g20
g3
Ntp466
Rp467
(lp468
g1
(g24
g3
Ntp469
Rp470
(lp471
I0
ag1
(g28
g3
Ntp472
Rp473
(lp474
I0
aI0
abaS'MicoGripper'
p475
abag1
(g33
g3
Ntp476
Rp477
(lp478
F0.0
aF0.0
aF-1.0
abababag1
(g2
g3
Ntp479
Rp480
(lp481
I0
ag1
(g7
g3
Ntp482
Rp483
(lp484
g1
(g11
g3
Ntp485
Rp486
(lp487
F0.10177601553040659
aF0.07007726706337639
aF0.30583753800890734
abag1
(g15
g3
Ntp488
Rp489
(lp490
F-0.3668195278326986
aF-0.28102084155180074
aF-0.8832836301890495
aF-0.07925117825097736
ababa(F0.5190978322227197
F0.1675
F0.0225
F0.0225
tp491
aF-1.0
aF0.000984237115533405
ag1
(g20
g3
Ntp492
Rp493
(lp494
g1
(g24
g3
Ntp495
Rp496
(lp497
I0
ag1
(g28
g3
Ntp498
Rp499
(lp500
I0
aI0
abaS'MicoGripper'
p501
abag1
(g33
g3
Ntp502
Rp503
(lp504
F0.0
aF0.0
aF-1.0
abababag1
(g2
g3
Ntp505
Rp506
(lp507
I0
ag1
(g7
g3
Ntp508
Rp509
(lp510
g1
(g11
g3
Ntp511
Rp512
(lp513
F0.1709282131980111
aF0.09704455965792079
aF0.1886979559707902
abag1
(g15
g3
Ntp514
Rp515
(lp516
F-0.7288286388412646
aF-0.04510868483946398
aF-0.5843437237789967
aF0.3540006133284787
ababa(F0.4203488608692382
F0.023125
F0.05500000000000001
F0.05500000000000001
tp517
aF0.005543016383030411
aF0.003762790089398562
ag1
(g20
g3
Ntp518
Rp519
(lp520
g1
(g24
g3
Ntp521
Rp522
(lp523
I0
ag1
(g28
g3
Ntp524
Rp525
(lp526
I0
aI0
abaS'MicoGripper'
p527
abag1
(g33
g3
Ntp528
Rp529
(lp530
F0.0
aF0.0
aF-1.0
abababa.