(lp0
((F-0.6060227990355594
F0.49666415849878387
F0.04859314323007667
tp1
(F-0.2500761582809438
F-0.7493278911457635
F0.12435690764006219
F0.6004206743048485
tp2
tp3
a((F-0.5953800255495786
F0.5015973729186504
F0.03703845165332646
tp4
(F0.8521902881252156
F-0.10519900124040732
F-0.48638887692396304
F-0.16165006454600925
tp5
tp6
a((F-0.597432723703441
F0.508066047927596
F0.04533236150354797
tp7
(F0.6017344959662307
F-0.4467947677209928
F-0.5595927126410161
F-0.35375984489548823
tp8
tp9
a((F-0.6007382791180577
F0.5058827367105241
F0.05922122066970849
tp10
(F0.30753559785770324
F0.6429490925463842
F0.5323335615846859
F-0.45679240323658005
tp11
tp12
a((F-0.6071664234064902
F0.4972248753401553
F0.05082919826690631
tp13
(F0.775835038427026
F-0.04943895598807638
F-0.6289315566987833
F-0.008993317974449586
tp14
tp15
a((F-0.607254575088438
F0.5003624819902182
F0.05778840024194528
tp16
(F0.7498851901819891
F-0.1768678649580991
F-0.6335761194294843
F-0.0705071682849469
tp17
tp18
a((F-0.6082341970882894
F0.4953330863628851
F0.04690633676432543
tp19
(F0.7732660967790591
F-0.11370322503895537
F-0.6039275239376752
F-0.15621352700175664
tp20
tp21
a((F-0.6063656701032528
F0.5007355438090407
F0.03664625180679613
tp22
(F0.786203301675682
F-0.03854925427048141
F-0.6106722461109693
F-0.08647387616633381
tp23
tp24
a((F-0.6044033545262979
F0.5075579464432873
F0.038777680051251276
tp25
(F0.3143811223459773
F0.6566617673142648
F0.4869938677959392
F-0.48249021336120584
tp26
tp27
a((F-0.6009508502481876
F0.4970919638645133
F0.05705825492471936
tp28
(F-0.24234248879416068
F-0.7444359852446063
F0.13651535630513306
F0.6069997854125057
tp29
tp30
a((F-0.6078471016895108
F0.5007560874877314
F0.059973374070905354
tp31
(F-0.14311415692252918
F-0.7547190635730511
F0.18459306593400276
F0.6130602524849054
tp32
tp33
a((F-0.5953752458428779
F0.505848423096471
F0.05702622545520278
tp34
(F-0.6751642050337922
F0.34776342599777554
F0.39653246886465704
F0.5157285108615555
tp35
tp36
a((F-0.6104290218573016
F0.4925264747765724
F0.056734218467713975
tp37
(F0.010918323870114136
F-0.7297982026584319
F0.1916883206253302
F0.656148581752815
tp38
tp39
a((F-0.6004826119221947
F0.498880348746347
F0.03763762932270308
tp40
(F0.7287068395657545
F-0.4053833149456993
F-0.38182966063030777
F-0.3985684636253477
tp41
tp42
a((F-0.5998348316915754
F0.5004968491613314
F0.04919024052128382
tp43
(F0.8821478803421154
F-0.041788330366397806
F-0.3556355631717882
F-0.3059284211389764
tp44
tp45
a((F-0.5933766715403349
F0.49581880294815417
F0.042717312059985385
tp46
(F0.8033679116115799
F-0.09517450218255283
F-0.4695700437752536
F-0.3536181368596054
tp47
tp48
a((F-0.6101358580356164
F0.4952509866522924
F0.051694840271808866
tp49
(F-0.5048605289806393
F0.64799081759947
F0.5443069309956532
F0.17015790153340807
tp50
tp51
a((F-0.5943995703033295
F0.5103133441824815
F0.05565243611425799
tp52
(F0.8195827115554597
F-0.025526005706106226
F-0.551312313110633
F-0.1539069048636083
tp53
tp54
a((F-0.5938493690441391
F0.4965614827368267
F0.040115036812693
tp55
(F0.8534783849991335
F-0.25404223206722515
F-0.3883428440050882
F-0.2371223864918979
tp56
tp57
a((F-0.5955316977830292
F0.49054791803901193
F0.042712220855597186
tp58
(F0.6830256141993436
F-0.4945495549358899
F-0.5233110317544825
F-0.12264710393801338
tp59
tp60
a.