ccopy_reg
_reconstructor
p0
(cgraspit_interface.msg._PlanGraspsResult
PlanGraspsResult
p1
c__builtin__
object
p2
Ntp3
Rp4
(lp5
(lp6
g0
(cgraspit_interface.msg._Grasp
Grasp
p7
g2
Ntp8
Rp9
(lp10
I0
ag0
(cgeometry_msgs.msg._Pose
Pose
p11
g2
Ntp12
Rp13
(lp14
g0
(cgeometry_msgs.msg._Point
Point
p15
g2
Ntp16
Rp17
(lp18
F-0.15301848702201545
aF-0.020139247248718146
aF0.07942309744458163
abag0
(cgeometry_msgs.msg._Quaternion
Quaternion
p19
g2
Ntp20
Rp21
(lp22
F-0.6689136160829127
aF-0.09961446781739662
aF0.7308313023543649
aF0.09228834985718107
ababa(F0.5608412271445785
F1.2217304763960306
F5.062342194201436e-19
F0.0009236176179585163
tp23
aF0.10545871189488604
aF1.4282113121206323
ag0
(cgeometry_msgs.msg._Vector3Stamped
Vector3Stamped
p24
g2
Ntp25
Rp26
(lp27
g0
(cstd_msgs.msg._Header
Header
p28
g2
Ntp29
Rp30
(lp31
I0
ag0
(cgenpy.rostime
Time
p32
g2
Ntp33
Rp34
(lp35
I0
aI0
abaS'MicoGripper'
p36
abag0
(cgeometry_msgs.msg._Vector3
Vector3
p37
g2
Ntp38
Rp39
(lp40
F0.0
aF0.0
aF-1.0
abababag0
(g7
g2
Ntp41
Rp42
(lp43
I0
ag0
(g11
g2
Ntp44
Rp45
(lp46
g0
(g15
g2
Ntp47
Rp48
(lp49
F-0.15950597192211854
aF0.00388986397852647
aF0.027343928560739698
abag0
(g19
g2
Ntp50
Rp51
(lp52
F-0.6842624867048176
aF-0.1379393290924789
aF0.6873223317822794
aF0.20086214927513485
ababa(F0.5007728339303289
F0.02
F0.08
F0.08
tp53
aF-1.0
aF0.0
ag0
(g24
g2
Ntp54
Rp55
(lp56
g0
(g28
g2
Ntp57
Rp58
(lp59
I0
ag0
(g32
g2
Ntp60
Rp61
(lp62
I0
aI0
abaS'MicoGripper'
p63
abag0
(g37
g2
Ntp64
Rp65
(lp66
F0.0
aF0.0
aF-1.0
abababag0
(g7
g2
Ntp67
Rp68
(lp69
I0
ag0
(g11
g2
Ntp70
Rp71
(lp72
g0
(g15
g2
Ntp73
Rp74
(lp75
F-0.1552151942479278
aF-0.02526025671826898
aF-0.019913310233839552
abag0
(g19
g2
Ntp76
Rp77
(lp78
F-0.6749751921089235
aF-0.02886574673300317
aF0.7372742444293571
aF0.001395422584216514
ababa(F0.6393540160397171
F0.08499999999999999
F0.11499999999999998
F0.13249999999999998
tp79
aF0.15950659336221143
aF1.915085718283205
ag0
(g24
g2
Ntp80
Rp81
(lp82
g0
(g28
g2
Ntp83
Rp84
(lp85
I0
ag0
(g32
g2
Ntp86
Rp87
(lp88
I0
aI0
abaS'MicoGripper'
p89
abag0
(g37
g2
Ntp90
Rp91
(lp92
F0.0
aF0.0
aF-1.0
abababag0
(g7
g2
Ntp93
Rp94
(lp95
I0
ag0
(g11
g2
Ntp96
Rp97
(lp98
g0
(g15
g2
Ntp99
Rp100
(lp101
F0.012229438303142388
aF-0.15887779430264948
aF0.04594168163275315
abag0
(g19
g2
Ntp102
Rp103
(lp104
F-0.50877821648037
aF-0.44616059814301484
aF0.49608195502817776
aF-0.5440479215980355
ababa(F0.6040145228546777
F0.043750000000000004
F0.13374999999999998
F0.13374999999999998
tp105
aF0.007918141469652529
aF0.0409714092552165
ag0
(g24
g2
Ntp106
Rp107
(lp108
g0
(g28
g2
Ntp109
Rp110
(lp111
I0
ag0
(g32
g2
Ntp112
Rp113
(lp114
I0
aI0
abaS'MicoGripper'
p115
abag0
(g37
g2
Ntp116
Rp117
(lp118
F0.0
aF0.0
aF-1.0
abababag0
(g7
g2
Ntp119
Rp120
(lp121
I0
ag0
(g11
g2
Ntp122
Rp123
(lp124
g0
(g15
g2
Ntp125
Rp126
(lp127
F0.013486721623929764
aF-0.15484556223638707
aF0.043653378802037804
abag0
(g19
g2
Ntp128
Rp129
(lp130
F-0.4947943576460795
aF-0.6141801828575026
aF0.48204365660107723
aF-0.3815693380728997
ababa(F0.5978726241433017
F0.033125
F0.15437499999999998
F0.15437499999999998
tp131
aF-1.0
aF0.0
ag0
(g24
g2
Ntp132
Rp133
(lp134
g0
(g28
g2
Ntp135
Rp136
(lp137
I0
ag0
(g32
g2
Ntp138
Rp139
(lp140
I0
aI0
abaS'MicoGripper'
p141
abag0
(g37
g2
Ntp142
Rp143
(lp144
F0.0
aF0.0
aF-1.0
abababag0
(g7
g2
Ntp145
Rp146
(lp147
I0
ag0
(g11
g2
Ntp148
Rp149
(lp150
g0
(g15
g2
Ntp151
Rp152
(lp153
F-0.14960102301299388
aF-0.016324587277521823
aF-0.04796230878124396
abag0
(g19
g2
Ntp154
Rp155
(lp156
F-0.7079586687627549
aF0.023912318744956383
aF0.7052109757400933
aF-0.030003400334181567
ababa(F0.6698423994908895
F0.09125
F0.19375000000000003
F0.19375000000000003
tp157
aF0.12186693630725134
aF1.2914892184134332
ag0
(g24
g2
Ntp158
Rp159
(lp160
g0
(g28
g2
Ntp161
Rp162
(lp163
I0
ag0
(g32
g2
Ntp164
Rp165
(lp166
I0
aI0
abaS'MicoGripper'
p167
abag0
(g37
g2
Ntp168
Rp169
(lp170
F0.0
aF0.0
aF-1.0
abababag0
(g7
g2
Ntp171
Rp172
(lp173
I0
ag0
(g11
g2
Ntp174
Rp175
(lp176
g0
(g15
g2
Ntp177
Rp178
(lp179
F0.00590716349267016
aF-0.15759359117497013
aF-0.0097790078139599
abag0
(g19
g2
Ntp180
Rp181
(lp182
F-0.5009129921889794
aF-0.5804417997060402
aF0.5160967898568461
aF-0.3818607009234586
ababa(F0.6251168376541554
F0.06562500000000002
F0.07312500000000002
F0.07312500000000002
tp183
aF-1.0
aF0.0
ag0
(g24
g2
Ntp184
Rp185
(lp186
g0
(g28
g2
Ntp187
Rp188
(lp189
I0
ag0
(g32
g2
Ntp190
Rp191
(lp192
I0
aI0
abaS'MicoGripper'
p193
abag0
(g37
g2
Ntp194
Rp195
(lp196
F0.0
aF0.0
aF-1.0
abababag0
(g7
g2
Ntp197
Rp198
(lp199
I0
ag0
(g11
g2
Ntp200
Rp201
(lp202
g0
(g15
g2
Ntp203
Rp204
(lp205
F-0.14734370894862212
aF-0.019070565484950064
aF-0.004645845303613442
abag0
(g19
g2
Ntp206
Rp207
(lp208
F-0.7085312220067277
aF-0.020777245818373546
aF0.7052868496336068
aF0.011057722720274995
ababa(F0.7217673886838929
F0.11624999999999998
F0.03
F0.44625000000000026
tp209
aF0.2287563547574813
aF2.7973839078746443
ag0
(g24
g2
Ntp210
Rp211
(lp212
g0
(g28
g2
Ntp213
Rp214
(lp215
I0
ag0
(g32
g2
Ntp216
Rp217
(lp218
I0
aI0
abaS'MicoGripper'
p219
abag0
(g37
g2
Ntp220
Rp221
(lp222
F0.0
aF0.0
aF-1.0
abababag0
(g7
g2
Ntp223
Rp224
(lp225
I0
ag0
(g11
g2
Ntp226
Rp227
(lp228
g0
(g15
g2
Ntp229
Rp230
(lp231
F-0.15756055907863242
aF0.01735906911108314
aF0.05617615387070308
abag0
(g19
g2
Ntp232
Rp233
(lp234
F-0.6798214029956879
aF-0.2333110887559766
aF0.6167964178722692
aF0.32089090793042485
ababa(F0.3522370903872606
F0.04750000000000001
F0.10874999999999999
F0.10874999999999999
tp235
aF-1.0
aF0.0
ag0
(g24
g2
Ntp236
Rp237
(lp238
g0
(g28
g2
Ntp239
Rp240
(lp241
I0
ag0
(g32
g2
Ntp242
Rp243
(lp244
I0
aI0
abaS'MicoGripper'
p245
abag0
(g37
g2
Ntp246
Rp247
(lp248
F0.0
aF0.0
aF-1.0
abababag0
(g7
g2
Ntp249
Rp250
(lp251
I0
ag0
(g11
g2
Ntp252
Rp253
(lp254
g0
(g15
g2
Ntp255
Rp256
(lp257
F-0.06409400133294067
aF-0.0022822699559676973
aF0.196076228116646
abag0
(g19
g2
Ntp258
Rp259
(lp260
F-0.1627464171002811
aF0.07312125478138702
aF0.9484235665918317
aF-0.2620298153902459
ababa(F0.44013278535092304
F0.0325
F0.0875
F0.0875
tp261
aF-1.0
aF0.0
ag0
(g24
g2
Ntp262
Rp263
(lp264
g0
(g28
g2
Ntp265
Rp266
(lp267
I0
ag0
(g32
g2
Ntp268
Rp269
(lp270
I0
aI0
abaS'MicoGripper'
p271
abag0
(g37
g2
Ntp272
Rp273
(lp274
F0.0
aF0.0
aF-1.0
abababag0
(g7
g2
Ntp275
Rp276
(lp277
I0
ag0
(g11
g2
Ntp278
Rp279
(lp280
g0
(g15
g2
Ntp281
Rp282
(lp283
F-0.13779050038742777
aF-0.006990554545276128
aF0.10215085187435889
abag0
(g19
g2
Ntp284
Rp285
(lp286
F-0.4992291166517148
aF0.17325852890670973
aF0.8075131657296692
aF-0.2620577387170225
ababa(F0.5005654427625295
F0.11124999999999999
F0.06625
F0.06625
tp287
aF-1.0
aF0.0
ag0
(g24
g2
Ntp288
Rp289
(lp290
g0
(g28
g2
Ntp291
Rp292
(lp293
I0
ag0
(g32
g2
Ntp294
Rp295
(lp296
I0
aI0
abaS'MicoGripper'
p297
abag0
(g37
g2
Ntp298
Rp299
(lp300
F0.0
aF0.0
aF-1.0
abababag0
(g7
g2
Ntp301
Rp302
(lp303
I0
ag0
(g11
g2
Ntp304
Rp305
(lp306
g0
(g15
g2
Ntp307
Rp308
(lp309
F0.009665421202016852
aF0.16060897833952623
aF0.056116786275528026
abag0
(g19
g2
Ntp310
Rp311
(lp312
F0.4035442161636499
aF0.5274690969738478
aF0.5851101441479329
aF-0.46537569398674455
ababa(F0.5503653918034153
F0.040625
F0.125625
F0.125625
tp313
aF-1.0
aF0.0
ag0
(g24
g2
Ntp314
Rp315
(lp316
g0
(g28
g2
Ntp317
Rp318
(lp319
I0
ag0
(g32
g2
Ntp320
Rp321
(lp322
I0
aI0
abaS'MicoGripper'
p323
abag0
(g37
g2
Ntp324
Rp325
(lp326
F0.0
aF0.0
aF-1.0
abababag0
(g7
g2
Ntp327
Rp328
(lp329
I0
ag0
(g11
g2
Ntp330
Rp331
(lp332
g0
(g15
g2
Ntp333
Rp334
(lp335
F0.00966778147352973
aF0.16061387364539817
aF0.08481796093672697
abag0
(g19
g2
Ntp336
Rp337
(lp338
F0.4035365375154113
aF0.5276809793003205
aF0.5850937459747592
aF-0.46516271926708824
ababa(F0.5484028631981126
F0.04625
F0.125625
F0.125625
tp339
aF-1.0
aF0.0
ag0
(g24
g2
Ntp340
Rp341
(lp342
g0
(g28
g2
Ntp343
Rp344
(lp345
I0
ag0
(g32
g2
Ntp346
Rp347
(lp348
I0
aI0
abaS'MicoGripper'
p349
abag0
(g37
g2
Ntp350
Rp351
(lp352
F0.0
aF0.0
aF-1.0
abababag0
(g7
g2
Ntp353
Rp354
(lp355
I0
ag0
(g11
g2
Ntp356
Rp357
(lp358
g0
(g15
g2
Ntp359
Rp360
(lp361
F0.06977644069538118
aF0.13925473388426274
aF-0.03696187249715142
abag0
(g19
g2
Ntp362
Rp363
(lp364
F-0.594544543542651
aF-0.4233961160019312
aF-0.5747902733692039
aF0.36995764127572217
ababa(F0.6298199417062047
F0.04125
F0.18375000000000002
F0.3587500000000002
tp365
aF0.1768429172686396
aF1.876770819416628
ag0
(g24
g2
Ntp366
Rp367
(lp368
g0
(g28
g2
Ntp369
Rp370
(lp371
I0
ag0
(g32
g2
Ntp372
Rp373
(lp374
I0
aI0
abaS'MicoGripper'
p375
abag0
(g37
g2
Ntp376
Rp377
(lp378
F0.0
aF0.0
aF-1.0
abababag0
(g7
g2
Ntp379
Rp380
(lp381
I0
ag0
(g11
g2
Ntp382
Rp383
(lp384
g0
(g15
g2
Ntp385
Rp386
(lp387
F-0.09659226764068664
aF0.12068443846703997
aF0.10283098811471696
abag0
(g19
g2
Ntp388
Rp389
(lp390
F-0.36300491202962876
aF0.33549699487926377
aF0.8487845070611126
aF0.18770738089475564
ababa(F0.3832971623968375
F0.065
F0.03125
F0.03125
tp391
aF-1.0
aF0.0
ag0
(g24
g2
Ntp392
Rp393
(lp394
g0
(g28
g2
Ntp395
Rp396
(lp397
I0
ag0
(g32
g2
Ntp398
Rp399
(lp400
I0
aI0
abaS'MicoGripper'
p401
abag0
(g37
g2
Ntp402
Rp403
(lp404
F0.0
aF0.0
aF-1.0
abababag0
(g7
g2
Ntp405
Rp406
(lp407
I0
ag0
(g11
g2
Ntp408
Rp409
(lp410
g0
(g15
g2
Ntp411
Rp412
(lp413
F-0.00047873533506280453
aF-0.15171944029135787
aF-0.014252174050276293
abag0
(g19
g2
Ntp414
Rp415
(lp416
F-0.44412101871495696
aF-0.573625922040075
aF0.5758501287551813
aF-0.3769700936571809
ababa(F0.5811494337771311
F0.09874999999999999
F0.14625
F0.14625
tp417
aF-1.0
aF0.0
ag0
(g24
g2
Ntp418
Rp419
(lp420
g0
(g28
g2
Ntp421
Rp422
(lp423
I0
ag0
(g32
g2
Ntp424
Rp425
(lp426
I0
aI0
abaS'MicoGripper'
p427
abag0
(g37
g2
Ntp428
Rp429
(lp430
F0.0
aF0.0
aF-1.0
abababag0
(g7
g2
Ntp431
Rp432
(lp433
I0
ag0
(g11
g2
Ntp434
Rp435
(lp436
g0
(g15
g2
Ntp437
Rp438
(lp439
F-0.15966240282077912
aF0.0031039108923633023
aF0.10887869601859836
abag0
(g19
g2
Ntp440
Rp441
(lp442
F-0.6201099873212309
aF0.14223069035978664
aF0.7643991269204551
aF-0.10453711832400658
ababa(F0.49954483138098305
F0.065
F0.11999999999999997
F0.11999999999999997
tp443
aF-1.0
aF0.0
ag0
(g24
g2
Ntp444
Rp445
(lp446
g0
(g28
g2
Ntp447
Rp448
(lp449
I0
ag0
(g32
g2
Ntp450
Rp451
(lp452
I0
aI0
abaS'MicoGripper'
p453
abag0
(g37
g2
Ntp454
Rp455
(lp456
F0.0
aF0.0
aF-1.0
abababag0
(g7
g2
Ntp457
Rp458
(lp459
I0
ag0
(g11
g2
Ntp460
Rp461
(lp462
g0
(g15
g2
Ntp463
Rp464
(lp465
F0.07211731384560889
aF0.1419374287803094
aF0.020573154333734734
abag0
(g19
g2
Ntp466
Rp467
(lp468
F-0.6191343574229716
aF-0.33113469799469253
aF-0.5367499641129965
aF0.46789094377547513
ababa(F0.6432379961392982
F0.01625
F0.05625000000000001
F0.3962500000000002
tp469
aF0.1292907861899512
aF1.700838408588429
ag0
(g24
g2
Ntp470
Rp471
(lp472
g0
(g28
g2
Ntp473
Rp474
(lp475
I0
ag0
(g32
g2
Ntp476
Rp477
(lp478
I0
aI0
abaS'MicoGripper'
p479
abag0
(g37
g2
Ntp480
Rp481
(lp482
F0.0
aF0.0
aF-1.0
abababag0
(g7
g2
Ntp483
Rp484
(lp485
I0
ag0
(g11
g2
Ntp486
Rp487
(lp488
g0
(g15
g2
Ntp489
Rp490
(lp491
F-0.15346434834707695
aF-0.013921867625170616
aF0.08032208479231952
abag0
(g19
g2
Ntp492
Rp493
(lp494
F0.03330904687852044
aF-0.630658500128445
aF0.08856305376542464
aF0.7702706985985689
ababa(F0.5720600870927879
F0.06437500000000002
F0.24758658885955814
F0.011250000000000001
tp495
aF-1.0
aF0.0
ag0
(g24
g2
Ntp496
Rp497
(lp498
g0
(g28
g2
Ntp499
Rp500
(lp501
I0
ag0
(g32
g2
Ntp502
Rp503
(lp504
I0
aI0
abaS'MicoGripper'
p505
abag0
(g37
g2
Ntp506
Rp507
(lp508
F0.0
aF0.0
aF-1.0
abababag0
(g7
g2
Ntp509
Rp510
(lp511
I0
ag0
(g11
g2
Ntp512
Rp513
(lp514
g0
(g15
g2
Ntp515
Rp516
(lp517
F-0.13069433119614873
aF-0.08515582083280106
aF0.09626303619777658
abag0
(g19
g2
Ntp518
Rp519
(lp520
F-0.6360436936478442
aF-0.17297982346990512
aF0.7366402442611769
aF-0.15128632118589386
ababa(F0.6736718829332639
F0.07
F0.07
F0.48750000000000027
tp521
aF0.14284329386700345
aF1.634011204074185
ag0
(g24
g2
Ntp522
Rp523
(lp524
g0
(g28
g2
Ntp525
Rp526
(lp527
I0
ag0
(g32
g2
Ntp528
Rp529
(lp530
I0
aI0
abaS'MicoGripper'
p531
abag0
(g37
g2
Ntp532
Rp533
(lp534
F0.0
aF0.0
aF-1.0
abababaa(F-1.777042520502775
F-1.7734354865586441
F-1.7554311590370935
F-1.7278100835116872
F-1.7233389047882286
F-1.7155425633787074
F-1.7108402821380153
F-1.696649799445763
F-1.679577559202984
F-1.6653791940567326
F-1.6620374334058738
F-1.6567934574266272
F-1.6494597996200993
F-1.6436109064756628
F-1.6430660407142141
F-1.6376479668978927
F-1.6336227021184992
F-1.628583599399739
F-1.6142651491701026
F-1.6117800815055223
tp535
aS'GUIDED_POTENTIAL_QUALITY_ENERGY'
p536
ab.